; Function Attrs: nounwind uwtable
define noalias nonnull ptr @l_Array_mapMUnsafe_map___at___aux__Init__NotationExtra______macroRules__Lean__Parser__Command__classAbbrev__1___spec__1___lambda__1(ptr noundef %0, ptr noundef readnone captures(none) %1) local_unnamed_addr #0 {
  tail call void @lean_inc_heartbeat() #5
  %3 = tail call noalias ptr @mi_malloc_small(i64 noundef 16) #5
  %4 = icmp eq ptr %3, null
  br i1 %4, label %5, label %lean_alloc_ctor.exit

5:                                                ; preds = %2
  tail call void @lean_internal_panic_out_of_memory() #6
  unreachable

lean_alloc_ctor.exit:                             ; preds = %2
  %6 = getelementptr inbounds nuw i8, ptr %3, i64 4
  store i32 1, ptr %3, align 4, !tbaa !5
  store i32 16842768, ptr %6, align 4
  %7 = getelementptr inbounds nuw i8, ptr %3, i64 8
  store ptr %0, ptr %7, align 8, !tbaa !11
  ret ptr %3
}